target datalayout = "e-m:e-p270:32:32-p271:32:32-p272:64:64-i64:64-i128:128-f80:128-n8:16:32:64-S128"
target triple = "x86_64-pc-linux-gnu"

%struct.BackendGlobalData = type <{ ptr, ptr, i8, i8, i8, i8, i8, i8, i8, i8, i8, [3 x i8], i32, ptr, ptr, ptr, ptr, ptr, ptr, ptr, ptr, ptr, ptr, ptr, ptr, ptr, i32, %struct.jvmtiCapabilities, i8, [3 x i8], %struct.jvmtiEventCallbacks, ptr, ptr, ptr, ptr, ptr, ptr, ptr, i32, [4 x i8], ptr, i64, i32, [4 x i8], ptr, i32, i32, i8, i8, [6 x i8] }>
%struct.jvmtiCapabilities = type { i64, i64 }
%struct.jvmtiEventCallbacks = type { ptr, ptr, ptr, ptr, ptr, ptr, ptr, ptr, ptr, ptr, ptr, ptr, ptr, ptr, ptr, ptr, ptr, ptr, ptr, ptr, ptr, ptr, ptr, ptr, ptr, ptr, ptr, ptr, ptr, ptr, ptr, ptr, ptr, ptr, ptr, ptr, ptr, ptr, ptr }
%struct.EventInfo = type { i32, ptr, i8, ptr, ptr, i64, ptr, %union.anon }
%union.anon = type { %struct.anon.0 }
%struct.anon.0 = type { ptr, ptr, i8, %union.jvalue }
%union.jvalue = type { i64 }

@stderr = external global ptr, align 8
@.str = private unnamed_addr constant [17 x i8] c"JDWP exit error \00", align 1
@.str.1 = private unnamed_addr constant [2 x i8] c"\0A\00", align 1
@.str.2 = private unnamed_addr constant [19 x i8] c"%s(%d): %s [%s:%d]\00", align 1
@.str.4 = private unnamed_addr constant [55 x i8] c"src/jdk.jdwp.agent/share/native/libjdwp/eventHandler.c\00", align 1
@gdata = external global ptr, align 8
@.str.6 = private unnamed_addr constant [42 x i8] c"Can't get jclass for a methodID, invalid?\00", align 1
@active_callbacks = internal global i32 0, align 4
@vm_death_callback_active = internal global i8 0, align 1
@callbackLock = internal global ptr null, align 8
@callbackBlock = internal global ptr null, align 8
@.str.25 = private unnamed_addr constant [5 x i8] c"MISC\00", align 1
@.str.28 = private unnamed_addr constant [3 x i8] c"CB\00", align 1
@.str.30 = private unnamed_addr constant [35 x i8] c"Problems tracking active callbacks\00", align 1
@.str.41 = private unnamed_addr constant [22 x i8] c"cbFramePop: thread=%p\00", align 1
@.str.42 = private unnamed_addr constant [15 x i8] c"END cbFramePop\00", align 1

; Function Attrs: nounwind uwtable
define hidden ptr @getMethodClass(ptr noundef %0, ptr noundef %1) #0 {
  %3 = alloca ptr, align 8
  %4 = alloca ptr, align 8
  %5 = alloca ptr, align 8
  %6 = alloca ptr, align 8
  %7 = alloca i32, align 4
  store ptr %0, ptr %4, align 8
  store ptr %1, ptr %5, align 8
  store ptr null, ptr %6, align 8
  %8 = load ptr, ptr %5, align 8
  %9 = icmp eq ptr %8, null
  br i1 %9, label %10, label %11

10:                                               ; preds = %2
  store ptr null, ptr %3, align 8
  br label %24

11:                                               ; preds = %2
  %12 = load ptr, ptr %5, align 8
  %13 = call i32 @methodClass(ptr noundef %12, ptr noundef %6)
  store i32 %13, ptr %7, align 4
  %14 = load i32, ptr %7, align 4
  %15 = icmp ne i32 %14, 0
  br i1 %15, label %16, label %22

16:                                               ; preds = %11
  %17 = load ptr, ptr @stderr, align 8
  %18 = load i32, ptr %7, align 4
  %19 = call ptr @jvmtiErrorText(i32 noundef %18)
  %20 = load i32, ptr %7, align 4
  call void (ptr, ptr, ptr, ptr, ...) @print_message(ptr noundef %17, ptr noundef @.str, ptr noundef @.str.1, ptr noundef @.str.2, ptr noundef %19, i32 noundef %20, ptr noundef @.str.6, ptr noundef @.str.4, i32 noundef 728)
  %21 = load i32, ptr %7, align 4
  call void @debugInit_exit(i32 noundef %21, ptr noundef @.str.6)
  store ptr null, ptr %3, align 8
  br label %24

22:                                               ; preds = %11
  %23 = load ptr, ptr %6, align 8
  store ptr %23, ptr %3, align 8
  br label %24

24:                                               ; preds = %22, %16, %10
  %25 = load ptr, ptr %3, align 8
  ret ptr %25
}

; Function Attrs: nounwind uwtable
define internal void @cbFramePop(ptr noundef %0, ptr noundef %1, ptr noundef %2, ptr noundef %3, i8 noundef zeroext %4) #0 {
  %6 = alloca ptr, align 8
  %7 = alloca ptr, align 8
  %8 = alloca ptr, align 8
  %9 = alloca ptr, align 8
  %10 = alloca i8, align 1
  %11 = alloca %struct.EventInfo, align 8
  %12 = alloca i8, align 1
  store ptr %0, ptr %6, align 8
  store ptr %1, ptr %7, align 8
  store ptr %2, ptr %8, align 8
  store ptr %3, ptr %9, align 8
  store i8 %4, ptr %10, align 1
  %13 = load i8, ptr %10, align 1
  %14 = icmp ne i8 %13, 0
  br i1 %14, label %15, label %16

15:                                               ; preds = %5
  br label %87

16:                                               ; preds = %5
  %17 = load ptr, ptr @gdata, align 8
  %18 = getelementptr inbounds %struct.BackendGlobalData, ptr %17, i32 0, i32 38
  %19 = load i32, ptr %18, align 8
  %20 = and i32 %19, 64
  %21 = icmp ne i32 %20, 0
  br i1 %21, label %22, label %24

22:                                               ; preds = %16
  call void @log_message_begin(ptr noundef @.str.28, ptr noundef @.str.4, i32 noundef 791)
  %23 = load ptr, ptr %8, align 8
  call void (ptr, ...) @log_message_end(ptr noundef @.str.41, ptr noundef %23)
  br label %25

24:                                               ; preds = %16
  br label %25

25:                                               ; preds = %24, %22
  store i8 1, ptr %12, align 1
  %26 = load ptr, ptr @callbackLock, align 8
  call void @debugMonitorEnter(ptr noundef %26)
  %27 = load i8, ptr @vm_death_callback_active, align 1
  %28 = icmp ne i8 %27, 0
  br i1 %28, label %29, label %33

29:                                               ; preds = %25
  %30 = load ptr, ptr @callbackLock, align 8
  call void @debugMonitorExit(ptr noundef %30)
  %31 = load ptr, ptr @callbackBlock, align 8
  call void @debugMonitorEnter(ptr noundef %31)
  %32 = load ptr, ptr @callbackBlock, align 8
  call void @debugMonitorExit(ptr noundef %32)
  br label %37

33:                                               ; preds = %25
  %34 = load i32, ptr @active_callbacks, align 4
  %35 = add nsw i32 %34, 1
  store i32 %35, ptr @active_callbacks, align 4
  store i8 0, ptr %12, align 1
  %36 = load ptr, ptr @callbackLock, align 8
  call void @debugMonitorExit(ptr noundef %36)
  br label %37

37:                                               ; preds = %33, %29
  %38 = load i8, ptr %12, align 1
  %39 = icmp ne i8 %38, 0
  br i1 %39, label %79, label %40

40:                                               ; preds = %37
  call void @llvm.memset.p0.i64(ptr align 8 %11, i8 0, i64 88, i1 false)
  %41 = getelementptr inbounds %struct.EventInfo, ptr %11, i32 0, i32 0
  store i32 3, ptr %41, align 8
  %42 = load ptr, ptr %8, align 8
  %43 = getelementptr inbounds %struct.EventInfo, ptr %11, i32 0, i32 1
  store ptr %42, ptr %43, align 8
  %44 = load ptr, ptr %6, align 8
  %45 = load ptr, ptr %9, align 8
  %46 = call ptr @getMethodClass(ptr noundef %44, ptr noundef %45)
  %47 = getelementptr inbounds %struct.EventInfo, ptr %11, i32 0, i32 3
  store ptr %46, ptr %47, align 8
  %48 = load ptr, ptr %9, align 8
  %49 = getelementptr inbounds %struct.EventInfo, ptr %11, i32 0, i32 4
  store ptr %48, ptr %49, align 8
  %50 = load ptr, ptr %7, align 8
  call void @event_callback(ptr noundef %50, ptr noundef %11)
  %51 = load ptr, ptr @callbackLock, align 8
  call void @debugMonitorEnter(ptr noundef %51)
  %52 = load i32, ptr @active_callbacks, align 4
  %53 = add nsw i32 %52, -1
  store i32 %53, ptr @active_callbacks, align 4
  %54 = load i32, ptr @active_callbacks, align 4
  %55 = icmp slt i32 %54, 0
  br i1 %55, label %56, label %59

56:                                               ; preds = %40
  %57 = load ptr, ptr @stderr, align 8
  %58 = call ptr @jvmtiErrorText(i32 noundef 0)
  call void (ptr, ptr, ptr, ptr, ...) @print_message(ptr noundef %57, ptr noundef @.str, ptr noundef @.str.1, ptr noundef @.str.2, ptr noundef %58, i32 noundef 0, ptr noundef @.str.30, ptr noundef @.str.4, i32 noundef 800)
  call void @debugInit_exit(i32 noundef 0, ptr noundef @.str.30)
  br label %59

59:                                               ; preds = %56, %40
  %60 = load i8, ptr @vm_death_callback_active, align 1
  %61 = icmp ne i8 %60, 0
  br i1 %61, label %62, label %71

62:                                               ; preds = %59
  %63 = load i32, ptr @active_callbacks, align 4
  %64 = icmp eq i32 %63, 0
  br i1 %64, label %65, label %67

65:                                               ; preds = %62
  %66 = load ptr, ptr @callbackLock, align 8
  call void @debugMonitorNotifyAll(ptr noundef %66)
  br label %67

67:                                               ; preds = %65, %62
  %68 = load ptr, ptr @callbackLock, align 8
  call void @debugMonitorExit(ptr noundef %68)
  %69 = load ptr, ptr @callbackBlock, align 8
  call void @debugMonitorEnter(ptr noundef %69)
  %70 = load ptr, ptr @callbackBlock, align 8
  call void @debugMonitorExit(ptr noundef %70)
  br label %78

71:                                               ; preds = %59
  %72 = load i32, ptr @active_callbacks, align 4
  %73 = icmp eq i32 %72, 0
  br i1 %73, label %74, label %76

74:                                               ; preds = %71
  %75 = load ptr, ptr @callbackLock, align 8
  call void @debugMonitorNotifyAll(ptr noundef %75)
  br label %76

76:                                               ; preds = %74, %71
  %77 = load ptr, ptr @callbackLock, align 8
  call void @debugMonitorExit(ptr noundef %77)
  br label %78

78:                                               ; preds = %76, %67
  br label %79

79:                                               ; preds = %78, %37
  %80 = load ptr, ptr @gdata, align 8
  %81 = getelementptr inbounds %struct.BackendGlobalData, ptr %80, i32 0, i32 38
  %82 = load i32, ptr %81, align 8
  %83 = and i32 %82, 8
  %84 = icmp ne i32 %83, 0
  br i1 %84, label %85, label %86

85:                                               ; preds = %79
  call void @log_message_begin(ptr noundef @.str.25, ptr noundef @.str.4, i32 noundef 802)
  call void (ptr, ...) @log_message_end(ptr noundef @.str.42)
  br label %87

86:                                               ; preds = %79
  br label %87

87:                                               ; preds = %86, %85, %15
  ret void
}