; Function Attrs: nounwind uwtable
define internal void @cbFramePop(ptr nocapture readnone %0, ptr noundef %1, ptr noundef %2, ptr noundef %3, i8 noundef zeroext %4) #0 {
  %6 = alloca ptr, align 8
  %7 = alloca %struct.EventInfo, align 8
  %.not = icmp eq i8 %4, 0
  br i1 %.not, label %8, label %62

8:                                                ; preds = %5
  %9 = load ptr, ptr @gdata, align 8
  %10 = getelementptr inbounds i8, ptr %9, i64 528
  %11 = load i32, ptr %10, align 8
  %12 = and i32 %11, 64
  %.not8 = icmp eq i32 %12, 0
  br i1 %.not8, label %14, label %13

13:                                               ; preds = %8
  tail call void @log_message_begin(ptr noundef nonnull @.str.28, ptr noundef nonnull @.str.4, i32 noundef 791) #6
  tail call void (ptr, ...) @log_message_end(ptr noundef nonnull @.str.41, ptr noundef %2) #6
  br label %14

14:                                               ; preds = %8, %13
  %15 = load ptr, ptr @callbackLock, align 8
  tail call void @debugMonitorEnter(ptr noundef %15) #6
  %.b7 = load i1, ptr @vm_death_callback_active, align 1
  br i1 %.b7, label %.thread, label %19

.thread:                                          ; preds = %14
  %16 = load ptr, ptr @callbackLock, align 8
  tail call void @debugMonitorExit(ptr noundef %16) #6
  %17 = load ptr, ptr @callbackBlock, align 8
  tail call void @debugMonitorEnter(ptr noundef %17) #6
  %18 = load ptr, ptr @callbackBlock, align 8
  tail call void @debugMonitorExit(ptr noundef %18) #6
  br label %56

19:                                               ; preds = %14
  %20 = load i32, ptr @active_callbacks, align 4
  %21 = add nsw i32 %20, 1
  store i32 %21, ptr @active_callbacks, align 4
  %22 = load ptr, ptr @callbackLock, align 8
  tail call void @debugMonitorExit(ptr noundef %22) #6
  call void @llvm.memset.p0.i64(ptr noundef nonnull align 8 dereferenceable(88) %7, i8 0, i64 88, i1 false)
  store i32 3, ptr %7, align 8
  %23 = getelementptr inbounds i8, ptr %7, i64 8
  store ptr %2, ptr %23, align 8
  call void @llvm.lifetime.start.p0(i64 8, ptr nonnull %6)
  store ptr null, ptr %6, align 8
  %24 = icmp eq ptr %3, null
  br i1 %24, label %getMethodClass.exit, label %25

25:                                               ; preds = %19
  %26 = call i32 @methodClass(ptr noundef nonnull %3, ptr noundef nonnull %6) #6
  %.not.i = icmp eq i32 %26, 0
  br i1 %.not.i, label %30, label %27

27:                                               ; preds = %25
  %28 = load ptr, ptr @stderr, align 8
  %29 = call ptr @jvmtiErrorText(i32 noundef %26) #6
  call void (ptr, ptr, ptr, ptr, ...) @print_message(ptr noundef %28, ptr noundef nonnull @.str, ptr noundef nonnull @.str.1, ptr noundef nonnull @.str.2, ptr noundef %29, i32 noundef %26, ptr noundef nonnull @.str.6, ptr noundef nonnull @.str.4, i32 noundef 728) #6
  call void @debugInit_exit(i32 noundef %26, ptr noundef nonnull @.str.6) #6
  br label %getMethodClass.exit

30:                                               ; preds = %25
  %31 = load ptr, ptr %6, align 8
  br label %getMethodClass.exit

getMethodClass.exit:                              ; preds = %19, %27, %30
  %.0.i = phi ptr [ null, %27 ], [ %31, %30 ], [ null, %19 ]
  call void @llvm.lifetime.end.p0(i64 8, ptr nonnull %6)
  %32 = getelementptr inbounds i8, ptr %7, i64 24
  store ptr %.0.i, ptr %32, align 8
  %33 = getelementptr inbounds i8, ptr %7, i64 32
  store ptr %3, ptr %33, align 8
  call fastcc void @event_callback(ptr noundef %1, ptr noundef nonnull %7)
  %34 = load ptr, ptr @callbackLock, align 8
  call void @debugMonitorEnter(ptr noundef %34) #6
  %35 = load i32, ptr @active_callbacks, align 4
  %36 = add nsw i32 %35, -1
  store i32 %36, ptr @active_callbacks, align 4
  %37 = icmp slt i32 %35, 1
  br i1 %37, label %38, label %41

38:                                               ; preds = %getMethodClass.exit
  %39 = load ptr, ptr @stderr, align 8
  %40 = call ptr @jvmtiErrorText(i32 noundef 0) #6
  call void (ptr, ptr, ptr, ptr, ...) @print_message(ptr noundef %39, ptr noundef nonnull @.str, ptr noundef nonnull @.str.1, ptr noundef nonnull @.str.2, ptr noundef %40, i32 noundef 0, ptr noundef nonnull @.str.30, ptr noundef nonnull @.str.4, i32 noundef 800) #6
  call void @debugInit_exit(i32 noundef 0, ptr noundef nonnull @.str.30) #6
  br label %41

41:                                               ; preds = %38, %getMethodClass.exit
  %.b = load i1, ptr @vm_death_callback_active, align 1
  %42 = load i32, ptr @active_callbacks, align 4
  %43 = icmp eq i32 %42, 0
  br i1 %.b, label %44, label %51

44:                                               ; preds = %41
  br i1 %43, label %45, label %47

45:                                               ; preds = %44
  %46 = load ptr, ptr @callbackLock, align 8
  call void @debugMonitorNotifyAll(ptr noundef %46) #6
  br label %47

47:                                               ; preds = %45, %44
  %48 = load ptr, ptr @callbackLock, align 8
  call void @debugMonitorExit(ptr noundef %48) #6
  %49 = load ptr, ptr @callbackBlock, align 8
  call void @debugMonitorEnter(ptr noundef %49) #6
  %50 = load ptr, ptr @callbackBlock, align 8
  call void @debugMonitorExit(ptr noundef %50) #6
  br label %56

51:                                               ; preds = %41
  br i1 %43, label %52, label %54

52:                                               ; preds = %51
  %53 = load ptr, ptr @callbackLock, align 8
  call void @debugMonitorNotifyAll(ptr noundef %53) #6
  br label %54

54:                                               ; preds = %52, %51
  %55 = load ptr, ptr @callbackLock, align 8
  call void @debugMonitorExit(ptr noundef %55) #6
  br label %56

56:                                               ; preds = %.thread, %47, %54
  %57 = load ptr, ptr @gdata, align 8
  %58 = getelementptr inbounds i8, ptr %57, i64 528
  %59 = load i32, ptr %58, align 8
  %60 = and i32 %59, 8
  %.not10 = icmp eq i32 %60, 0
  br i1 %.not10, label %62, label %61

61:                                               ; preds = %56
  call void @log_message_begin(ptr noundef nonnull @.str.25, ptr noundef nonnull @.str.4, i32 noundef 802) #6
  call void (ptr, ...) @log_message_end(ptr noundef nonnull @.str.42) #6
  br label %62

62:                                               ; preds = %56, %5, %61
  ret void
}